target datalayout = "e-m:e-p270:32:32-p271:32:32-p272:64:64-i64:64-i128:128-f80:128-n8:16:32:64-S128"
target triple = "x86_64-pc-linux-gnu"

@.str.34 = private unnamed_addr constant [5 x i8] c"http\00", align 1
@.str.35 = private unnamed_addr constant [6 x i8] c"https\00", align 1

; Function Attrs: inlinehint mustprogress nounwind willreturn memory(read) uwtable
define available_externally i32 @atoi(ptr noundef nonnull %0) #17 {
  %2 = alloca ptr, align 8
  store ptr %0, ptr %2, align 8, !tbaa !12
  %3 = load ptr, ptr %2, align 8, !tbaa !12
  %4 = call i64 @strtol(ptr noundef %3, ptr noundef null, i32 noundef 10) #3
  %5 = trunc i64 %4 to i32
  ret i32 %5
}

; Function Attrs: inlinehint mustprogress nounwind uwtable
define internal noundef zeroext i16 @_ZL10__bswap_16t(i16 noundef zeroext %0) #10 {
  %2 = alloca i16, align 2
  store i16 %0, ptr %2, align 2, !tbaa !78
  %3 = load i16, ptr %2, align 2, !tbaa !78
  %4 = zext i16 %3 to i32
  %5 = ashr i32 %4, 8
  %6 = and i32 %5, 255
  %7 = load i16, ptr %2, align 2, !tbaa !78
  %8 = zext i16 %7 to i32
  %9 = and i32 %8, 255
  %10 = shl i32 %9, 8
  %11 = or i32 %6, %10
  %12 = trunc i32 %11 to i16
  ret i16 %12
}

; Function Attrs: mustprogress uwtable
define noundef zeroext i16 @_Z13grpc_strhtonsPKc(ptr noundef %0) #4 {
  %2 = alloca i16, align 2
  %3 = alloca ptr, align 8
  store ptr %0, ptr %3, align 8, !tbaa !12
  %4 = load ptr, ptr %3, align 8, !tbaa !12
  %5 = call i32 @strcmp(ptr noundef %4, ptr noundef @.str.34) #25
  %6 = icmp eq i32 %5, 0
  br i1 %6, label %7, label %9

7:                                                ; preds = %1
  %8 = call noundef zeroext i16 @_ZL10__bswap_16t(i16 noundef zeroext 80)
  store i16 %8, ptr %2, align 2
  br label %21

9:                                                ; preds = %1
  %10 = load ptr, ptr %3, align 8, !tbaa !12
  %11 = call i32 @strcmp(ptr noundef %10, ptr noundef @.str.35) #25
  %12 = icmp eq i32 %11, 0
  br i1 %12, label %13, label %15

13:                                               ; preds = %9
  %14 = call noundef zeroext i16 @_ZL10__bswap_16t(i16 noundef zeroext 443)
  store i16 %14, ptr %2, align 2
  br label %21

15:                                               ; preds = %9
  br label %16

16:                                               ; preds = %15
  %17 = load ptr, ptr %3, align 8, !tbaa !12
  %18 = call i32 @atoi(ptr noundef %17) #25
  %19 = trunc i32 %18 to i16
  %20 = call noundef zeroext i16 @_ZL10__bswap_16t(i16 noundef zeroext %19)
  store i16 %20, ptr %2, align 2
  br label %21

21:                                               ; preds = %16, %13, %7
  %22 = load i16, ptr %2, align 2
  ret i16 %22
}