; Function Attrs: mustprogress nofree nounwind willreturn uwtable
define noundef zeroext i16 @_Z13grpc_strhtonsPKc(ptr noundef readonly captures(none) %0) local_unnamed_addr #15 {
  %2 = tail call i32 @strcmp(ptr noundef nonnull dereferenceable(1) %0, ptr noundef nonnull dereferenceable(5) @.str.34) #31
  %3 = icmp eq i32 %2, 0
  br i1 %3, label %10, label %4

4:                                                ; preds = %1
  %5 = tail call i32 @strcmp(ptr noundef nonnull dereferenceable(1) %0, ptr noundef nonnull dereferenceable(6) @.str.35) #31
  %6 = icmp eq i32 %5, 0
  br i1 %6, label %10, label %7

7:                                                ; preds = %4
  %8 = tail call i64 @strtol(ptr noundef nonnull captures(none) %0, ptr noundef null, i32 noundef 10) #25
  %9 = trunc i64 %8 to i16
  %rev.i = tail call noundef i16 @llvm.bswap.i16(i16 %9)
  br label %10

10:                                               ; preds = %4, %1, %7
  %.0 = phi i16 [ %rev.i, %7 ], [ 20480, %1 ], [ -17663, %4 ]
  ret i16 %.0
}